; Function Attrs: nounwind uwtable
define internal fastcc noundef i32 @_flush_jobs(ptr noundef readonly captures(none) %0, ptr readonly captures(none) %.8.val, ptr noundef writeonly captures(none) initializes((0, 8)) %1) unnamed_addr #0 {
  %.val = load ptr, ptr %0, align 8
  %3 = getelementptr i8, ptr %.val, i64 8
  %.val.val = load i32, ptr %3, align 8
  %4 = icmp eq i32 %.val.val, 0
  %5 = load i32, ptr getelementptr inbounds nuw (i8, ptr @slurm_conf, i64 1152), align 8
  %6 = icmp eq i32 %.val.val, %5
  %or.cond.i = select i1 %4, i1 true, i1 %6
  br i1 %or.cond.i, label %9, label %7

7:                                                ; preds = %2
  %8 = tail call i32 (ptr, ...) @error(ptr noundef nonnull @.str.82, i32 noundef %.val.val) #10
  br label %24

9:                                                ; preds = %2
  %10 = tail call i32 @get_log_level() #10
  %11 = icmp sgt i32 %10, 5
  br i1 %11, label %12, label %18

12:                                               ; preds = %9
  %13 = load ptr, ptr %0, align 8
  %14 = getelementptr inbounds nuw i8, ptr %13, i64 60
  %15 = load i32, ptr %14, align 4
  %16 = getelementptr inbounds nuw i8, ptr %13, i64 40
  %17 = load ptr, ptr %16, align 8
  tail call void (i32, ptr, ...) @log_var(i32 noundef 6, ptr noundef nonnull @.str.83, i32 noundef %15, ptr noundef %17) #10
  br label %18

18:                                               ; preds = %12, %9
  %19 = getelementptr inbounds nuw i8, ptr %0, i64 56
  %20 = load ptr, ptr %19, align 8
  %21 = getelementptr inbounds nuw i8, ptr %.8.val, i64 8
  %22 = load i64, ptr %21, align 8
  %23 = tail call i32 @acct_storage_g_flush_jobs_on_cluster(ptr noundef %20, i64 noundef %22) #10
  br label %24

24:                                               ; preds = %18, %7
  %.011 = phi i32 [ %23, %18 ], [ 2002, %7 ]
  %.0 = phi ptr [ null, %18 ], [ @.str.81, %7 ]
  %25 = load ptr, ptr %0, align 8
  %26 = tail call ptr @slurm_persist_make_rc_msg(ptr noundef %25, i32 noundef %.011, ptr noundef %.0, i16 noundef zeroext 1408) #10
  store ptr %26, ptr %1, align 8
  ret i32 %.011
}